target datalayout = "e-m:e-p270:32:32-p271:32:32-p272:64:64-i64:64-i128:128-f80:128-n8:16:32:64-S128"
target triple = "x86_64-pc-linux-gnu"

%struct.H5CX_node_t = type { %struct.H5CX_t, ptr }
%struct.H5CX_t = type { i64, ptr, i64, ptr, i64, ptr, i64, ptr, i64, ptr, i64, ptr, i64, i32, i64, i8, ptr, i8, ptr, i8, i32, i8, [3 x double], i8, i64, i8, i32, i8, %struct.H5Z_cb_t, i8, ptr, i8, %struct.H5T_vlen_alloc_info_t, i8, %struct.H5T_conv_cb_t, i8, i32, i8, i8, i8, i32, i8, i8, i32, i8, i8, i32, i8, i32, i8, i64, i8, i8, i8, i8, i8, ptr, i8, ptr, i8, i32, i8, i32, i8, %struct.H5VL_connector_prop_t, i8, ptr, i8 }
%struct.H5Z_cb_t = type { ptr, ptr }
%struct.H5T_vlen_alloc_info_t = type { ptr, ptr, ptr, ptr }
%struct.H5T_conv_cb_t = type { ptr, ptr }
%struct.H5VL_connector_prop_t = type { ptr, ptr }

@H5S_init_g = global i8 0, align 1
@H5_libterm_g = external global i8, align 1
@.str.3 = private unnamed_addr constant [97 x i8] c"generated/home/dtcxzyw/WorkSpace/Projects/compilers/llvm-opt-benchmark/bench/hdf5/hdf5/src/H5S.c\00", align 1
@H5E_FUNC_g = external global i64, align 8
@H5E_CANTINIT_g = external global i64, align 8
@.str.4 = private unnamed_addr constant [32 x i8] c"interface initialization failed\00", align 1
@H5E_DATASPACE_g = external global i64, align 8
@H5E_CANTSET_g = external global i64, align 8
@H5E_CANTRELEASE_g = external global i64, align 8
@.str.10 = private unnamed_addr constant [28 x i8] c"unable to release dataspace\00", align 1
@H5_libinit_g = external global i8, align 1
@.str.11 = private unnamed_addr constant [30 x i8] c"library initialization failed\00", align 1
@.str.12 = private unnamed_addr constant [22 x i8] c"can't set API context\00", align 1
@H5E_ARGS_g = external global i64, align 8
@H5E_ID_g = external global i64, align 8
@H5E_CANTREGISTER_g = external global i64, align 8
@.str.15 = private unnamed_addr constant [32 x i8] c"unable to register dataspace ID\00", align 1
@H5E_BADTYPE_g = external global i64, align 8
@.str.18 = private unnamed_addr constant [16 x i8] c"not a dataspace\00", align 1
@__func__.H5Scopy = private unnamed_addr constant [8 x i8] c"H5Scopy\00", align 1
@.str.20 = private unnamed_addr constant [25 x i8] c"unable to copy dataspace\00", align 1

; Function Attrs: nounwind uwtable
define i64 @H5Scopy(i64 noundef %0) #0 {
  %2 = alloca i64, align 8
  %3 = alloca ptr, align 8
  %4 = alloca ptr, align 8
  %5 = alloca i64, align 8
  %6 = alloca %struct.H5CX_node_t, align 8
  %7 = alloca i8, align 1
  %8 = alloca i8, align 1
  store i64 %0, ptr %2, align 8, !tbaa !11
  call void @llvm.lifetime.start.p0(i64 8, ptr %3) #7
  store ptr null, ptr %3, align 8, !tbaa !13
  call void @llvm.lifetime.start.p0(i64 8, ptr %4) #7
  store ptr null, ptr %4, align 8, !tbaa !13
  call void @llvm.lifetime.start.p0(i64 8, ptr %5) #7
  store i64 -1, ptr %5, align 8, !tbaa !11
  call void @llvm.lifetime.start.p0(i64 480, ptr %6) #7
  call void @llvm.memset.p0.i64(ptr align 8 %6, i8 0, i64 480, i1 false)
  call void @llvm.lifetime.start.p0(i64 1, ptr %7) #7
  store i8 0, ptr %7, align 1, !tbaa !7
  call void @llvm.lifetime.start.p0(i64 1, ptr %8) #7
  store i8 0, ptr %8, align 1, !tbaa !7
  br label %9

9:                                                ; preds = %1
  %10 = load i8, ptr @H5_libinit_g, align 1, !tbaa !7, !range !9, !noundef !10
  %11 = trunc i8 %10 to i1
  br i1 %11, label %16, label %12

12:                                               ; preds = %9
  %13 = load i8, ptr @H5_libterm_g, align 1, !tbaa !7, !range !9, !noundef !10
  %14 = trunc i8 %13 to i1
  %15 = xor i1 %14, true
  br label %16

16:                                               ; preds = %12, %9
  %17 = phi i1 [ false, %9 ], [ %15, %12 ]
  %18 = xor i1 %17, true
  %19 = xor i1 %18, true
  %20 = zext i1 %19 to i32
  %21 = sext i32 %20 to i64
  %22 = call i64 @llvm.expect.i64(i64 %21, i64 0)
  %23 = icmp ne i64 %22, 0
  br i1 %23, label %24, label %53

24:                                               ; preds = %16
  %25 = call i32 @H5_init_library()
  %26 = icmp slt i32 %25, 0
  %27 = xor i1 %26, true
  %28 = xor i1 %27, true
  %29 = zext i1 %28 to i32
  %30 = sext i32 %29 to i64
  %31 = call i64 @llvm.expect.i64(i64 %30, i64 0)
  %32 = icmp ne i64 %31, 0
  br i1 %32, label %33, label %52

33:                                               ; preds = %24
  br label %34

34:                                               ; preds = %33
  br label %35

35:                                               ; preds = %34
  br label %36

36:                                               ; preds = %35
  %37 = load i64, ptr @H5E_FUNC_g, align 8, !tbaa !11
  %38 = load i64, ptr @H5E_CANTINIT_g, align 8, !tbaa !11
  %39 = call i32 (ptr, ptr, i32, i64, i64, ptr, ...) @H5E_printf_stack(ptr noundef @.str.3, ptr noundef @__func__.H5Scopy, i32 noundef 510, i64 noundef %37, i64 noundef %38, ptr noundef @.str.11)
  br label %40

40:                                               ; preds = %36
  br label %41

41:                                               ; preds = %40
  store i8 1, ptr %8, align 1, !tbaa !7
  %42 = load i8, ptr %8, align 1, !tbaa !7, !range !9, !noundef !10
  %43 = trunc i8 %42 to i1
  %44 = zext i1 %43 to i8
  store i8 %44, ptr %8, align 1, !tbaa !7
  br label %45

45:                                               ; preds = %41
  br label %46

46:                                               ; preds = %45
  br label %47

47:                                               ; preds = %46
  store i64 -1, ptr %5, align 8, !tbaa !11
  br label %196

48:                                               ; No predecessors!
  br label %49

49:                                               ; preds = %48
  br label %50

50:                                               ; preds = %49
  br label %51

51:                                               ; preds = %50
  br label %52

52:                                               ; preds = %51, %24
  br label %53

53:                                               ; preds = %52, %16
  %54 = load i8, ptr @H5S_init_g, align 1, !tbaa !7, !range !9, !noundef !10
  %55 = trunc i8 %54 to i1
  br i1 %55, label %60, label %56

56:                                               ; preds = %53
  %57 = load i8, ptr @H5_libterm_g, align 1, !tbaa !7, !range !9, !noundef !10
  %58 = trunc i8 %57 to i1
  %59 = xor i1 %58, true
  br label %60

60:                                               ; preds = %56, %53
  %61 = phi i1 [ false, %53 ], [ %59, %56 ]
  %62 = xor i1 %61, true
  %63 = xor i1 %62, true
  %64 = zext i1 %63 to i32
  %65 = sext i32 %64 to i64
  %66 = call i64 @llvm.expect.i64(i64 %65, i64 0)
  %67 = icmp ne i64 %66, 0
  br i1 %67, label %68, label %91

68:                                               ; preds = %60
  store i8 1, ptr @H5S_init_g, align 1, !tbaa !7
  %69 = call i32 @H5S__init_package()
  %70 = icmp slt i32 %69, 0
  br i1 %70, label %71, label %90

71:                                               ; preds = %68
  store i8 0, ptr @H5S_init_g, align 1, !tbaa !7
  br label %72

72:                                               ; preds = %71
  br label %73

73:                                               ; preds = %72
  br label %74

74:                                               ; preds = %73
  %75 = load i64, ptr @H5E_FUNC_g, align 8, !tbaa !11
  %76 = load i64, ptr @H5E_CANTINIT_g, align 8, !tbaa !11
  %77 = call i32 (ptr, ptr, i32, i64, i64, ptr, ...) @H5E_printf_stack(ptr noundef @.str.3, ptr noundef @__func__.H5Scopy, i32 noundef 510, i64 noundef %75, i64 noundef %76, ptr noundef @.str.4)
  br label %78

78:                                               ; preds = %74
  br label %79

79:                                               ; preds = %78
  store i8 1, ptr %8, align 1, !tbaa !7
  %80 = load i8, ptr %8, align 1, !tbaa !7, !range !9, !noundef !10
  %81 = trunc i8 %80 to i1
  %82 = zext i1 %81 to i8
  store i8 %82, ptr %8, align 1, !tbaa !7
  br label %83

83:                                               ; preds = %79
  br label %84

84:                                               ; preds = %83
  br label %85

85:                                               ; preds = %84
  store i64 -1, ptr %5, align 8, !tbaa !11
  br label %196

86:                                               ; No predecessors!
  br label %87

87:                                               ; preds = %86
  br label %88

88:                                               ; preds = %87
  br label %89

89:                                               ; preds = %88
  br label %90

90:                                               ; preds = %89, %68
  br label %91

91:                                               ; preds = %90, %60
  br label %92

92:                                               ; preds = %91
  br label %93

93:                                               ; preds = %92
  br label %94

94:                                               ; preds = %93
  %95 = call i32 @H5CX_push(ptr noundef %6)
  %96 = icmp slt i32 %95, 0
  %97 = xor i1 %96, true
  %98 = xor i1 %97, true
  %99 = zext i1 %98 to i32
  %100 = sext i32 %99 to i64
  %101 = call i64 @llvm.expect.i64(i64 %100, i64 0)
  %102 = icmp ne i64 %101, 0
  br i1 %102, label %103, label %122

103:                                              ; preds = %94
  br label %104

104:                                              ; preds = %103
  br label %105

105:                                              ; preds = %104
  br label %106

106:                                              ; preds = %105
  %107 = load i64, ptr @H5E_FUNC_g, align 8, !tbaa !11
  %108 = load i64, ptr @H5E_CANTSET_g, align 8, !tbaa !11
  %109 = call i32 (ptr, ptr, i32, i64, i64, ptr, ...) @H5E_printf_stack(ptr noundef @.str.3, ptr noundef @__func__.H5Scopy, i32 noundef 510, i64 noundef %107, i64 noundef %108, ptr noundef @.str.12)
  br label %110

110:                                              ; preds = %106
  br label %111

111:                                              ; preds = %110
  store i8 1, ptr %8, align 1, !tbaa !7
  %112 = load i8, ptr %8, align 1, !tbaa !7, !range !9, !noundef !10
  %113 = trunc i8 %112 to i1
  %114 = zext i1 %113 to i8
  store i8 %114, ptr %8, align 1, !tbaa !7
  br label %115

115:                                              ; preds = %111
  br label %116

116:                                              ; preds = %115
  br label %117

117:                                              ; preds = %116
  store i64 -1, ptr %5, align 8, !tbaa !11
  br label %196

118:                                              ; No predecessors!
  br label %119

119:                                              ; preds = %118
  br label %120

120:                                              ; preds = %119
  br label %121

121:                                              ; preds = %120
  br label %123

122:                                              ; preds = %94
  store i8 1, ptr %7, align 1, !tbaa !7
  br label %123

123:                                              ; preds = %122, %121
  br label %124

124:                                              ; preds = %123
  br label %125

125:                                              ; preds = %124
  %126 = call i32 @H5E_clear_stack()
  %127 = load i64, ptr %2, align 8, !tbaa !11
  %128 = call ptr @H5I_object_verify(i64 noundef %127, i32 noundef 4)
  store ptr %128, ptr %3, align 8, !tbaa !13
  %129 = icmp eq ptr null, %128
  br i1 %129, label %130, label %149

130:                                              ; preds = %125
  br label %131

131:                                              ; preds = %130
  br label %132

132:                                              ; preds = %131
  br label %133

133:                                              ; preds = %132
  %134 = load i64, ptr @H5E_ARGS_g, align 8, !tbaa !11
  %135 = load i64, ptr @H5E_BADTYPE_g, align 8, !tbaa !11
  %136 = call i32 (ptr, ptr, i32, i64, i64, ptr, ...) @H5E_printf_stack(ptr noundef @.str.3, ptr noundef @__func__.H5Scopy, i32 noundef 514, i64 noundef %134, i64 noundef %135, ptr noundef @.str.18)
  br label %137

137:                                              ; preds = %133
  br label %138

138:                                              ; preds = %137
  store i8 1, ptr %8, align 1, !tbaa !7
  %139 = load i8, ptr %8, align 1, !tbaa !7, !range !9, !noundef !10
  %140 = trunc i8 %139 to i1
  %141 = zext i1 %140 to i8
  store i8 %141, ptr %8, align 1, !tbaa !7
  br label %142

142:                                              ; preds = %138
  br label %143

143:                                              ; preds = %142
  br label %144

144:                                              ; preds = %143
  store i64 -1, ptr %5, align 8, !tbaa !11
  br label %196

145:                                              ; No predecessors!
  br label %146

146:                                              ; preds = %145
  br label %147

147:                                              ; preds = %146
  br label %148

148:                                              ; preds = %147
  br label %149

149:                                              ; preds = %148, %125
  %150 = load ptr, ptr %3, align 8, !tbaa !13
  %151 = call ptr @H5S_copy(ptr noundef %150, i1 noundef zeroext false, i1 noundef zeroext true)
  store ptr %151, ptr %4, align 8, !tbaa !13
  %152 = icmp eq ptr null, %151
  br i1 %152, label %153, label %172

153:                                              ; preds = %149
  br label %154

154:                                              ; preds = %153
  br label %155

155:                                              ; preds = %154
  br label %156

156:                                              ; preds = %155
  %157 = load i64, ptr @H5E_DATASPACE_g, align 8, !tbaa !11
  %158 = load i64, ptr @H5E_CANTINIT_g, align 8, !tbaa !11
  %159 = call i32 (ptr, ptr, i32, i64, i64, ptr, ...) @H5E_printf_stack(ptr noundef @.str.3, ptr noundef @__func__.H5Scopy, i32 noundef 518, i64 noundef %157, i64 noundef %158, ptr noundef @.str.20)
  br label %160

160:                                              ; preds = %156
  br label %161

161:                                              ; preds = %160
  store i8 1, ptr %8, align 1, !tbaa !7
  %162 = load i8, ptr %8, align 1, !tbaa !7, !range !9, !noundef !10
  %163 = trunc i8 %162 to i1
  %164 = zext i1 %163 to i8
  store i8 %164, ptr %8, align 1, !tbaa !7
  br label %165

165:                                              ; preds = %161
  br label %166

166:                                              ; preds = %165
  br label %167

167:                                              ; preds = %166
  store i64 -1, ptr %5, align 8, !tbaa !11
  br label %196

168:                                              ; No predecessors!
  br label %169

169:                                              ; preds = %168
  br label %170

170:                                              ; preds = %169
  br label %171

171:                                              ; preds = %170
  br label %172

172:                                              ; preds = %171, %149
  %173 = load ptr, ptr %4, align 8, !tbaa !13
  %174 = call i64 @H5I_register(i32 noundef 4, ptr noundef %173, i1 noundef zeroext true)
  store i64 %174, ptr %5, align 8, !tbaa !11
  %175 = icmp slt i64 %174, 0
  br i1 %175, label %176, label %195

176:                                              ; preds = %172
  br label %177

177:                                              ; preds = %176
  br label %178

178:                                              ; preds = %177
  br label %179

179:                                              ; preds = %178
  %180 = load i64, ptr @H5E_ID_g, align 8, !tbaa !11
  %181 = load i64, ptr @H5E_CANTREGISTER_g, align 8, !tbaa !11
  %182 = call i32 (ptr, ptr, i32, i64, i64, ptr, ...) @H5E_printf_stack(ptr noundef @.str.3, ptr noundef @__func__.H5Scopy, i32 noundef 522, i64 noundef %180, i64 noundef %181, ptr noundef @.str.15)
  br label %183

183:                                              ; preds = %179
  br label %184

184:                                              ; preds = %183
  store i8 1, ptr %8, align 1, !tbaa !7
  %185 = load i8, ptr %8, align 1, !tbaa !7, !range !9, !noundef !10
  %186 = trunc i8 %185 to i1
  %187 = zext i1 %186 to i8
  store i8 %187, ptr %8, align 1, !tbaa !7
  br label %188

188:                                              ; preds = %184
  br label %189

189:                                              ; preds = %188
  br label %190

190:                                              ; preds = %189
  store i64 -1, ptr %5, align 8, !tbaa !11
  br label %196

191:                                              ; No predecessors!
  br label %192

192:                                              ; preds = %191
  br label %193

193:                                              ; preds = %192
  br label %194

194:                                              ; preds = %193
  br label %195

195:                                              ; preds = %194, %172
  br label %196

196:                                              ; preds = %195, %190, %167, %144, %117, %85, %47
  %197 = load i64, ptr %5, align 8, !tbaa !11
  %198 = icmp slt i64 %197, 0
  br i1 %198, label %199, label %223

199:                                              ; preds = %196
  %200 = load ptr, ptr %4, align 8, !tbaa !13
  %201 = icmp ne ptr %200, null
  br i1 %201, label %202, label %222

202:                                              ; preds = %199
  %203 = load ptr, ptr %4, align 8, !tbaa !13
  %204 = call i32 @H5S_close(ptr noundef %203)
  %205 = icmp slt i32 %204, 0
  br i1 %205, label %206, label %222

206:                                              ; preds = %202
  br label %207

207:                                              ; preds = %206
  br label %208

208:                                              ; preds = %207
  br label %209

209:                                              ; preds = %208
  %210 = load i64, ptr @H5E_DATASPACE_g, align 8, !tbaa !11
  %211 = load i64, ptr @H5E_CANTRELEASE_g, align 8, !tbaa !11
  %212 = call i32 (ptr, ptr, i32, i64, i64, ptr, ...) @H5E_printf_stack(ptr noundef @.str.3, ptr noundef @__func__.H5Scopy, i32 noundef 527, i64 noundef %210, i64 noundef %211, ptr noundef @.str.10)
  br label %213

213:                                              ; preds = %209
  br label %214

214:                                              ; preds = %213
  store i8 1, ptr %8, align 1, !tbaa !7
  %215 = load i8, ptr %8, align 1, !tbaa !7, !range !9, !noundef !10
  %216 = trunc i8 %215 to i1
  %217 = zext i1 %216 to i8
  store i8 %217, ptr %8, align 1, !tbaa !7
  br label %218

218:                                              ; preds = %214
  br label %219

219:                                              ; preds = %218
  store i64 -1, ptr %5, align 8, !tbaa !11
  br label %220

220:                                              ; preds = %219
  br label %221

221:                                              ; preds = %220
  br label %222

222:                                              ; preds = %221, %202, %199
  br label %223

223:                                              ; preds = %222, %196
  %224 = load i8, ptr %7, align 1, !tbaa !7, !range !9, !noundef !10
  %225 = trunc i8 %224 to i1
  %226 = xor i1 %225, true
  %227 = xor i1 %226, true
  %228 = zext i1 %227 to i32
  %229 = sext i32 %228 to i64
  %230 = call i64 @llvm.expect.i64(i64 %229, i64 1)
  %231 = icmp ne i64 %230, 0
  br i1 %231, label %232, label %234

232:                                              ; preds = %223
  %233 = call i32 @H5CX_pop(i1 noundef zeroext true)
  store i8 0, ptr %7, align 1, !tbaa !7
  br label %234

234:                                              ; preds = %232, %223
  %235 = load i8, ptr %8, align 1, !tbaa !7, !range !9, !noundef !10
  %236 = trunc i8 %235 to i1
  %237 = xor i1 %236, true
  %238 = xor i1 %237, true
  %239 = zext i1 %238 to i32
  %240 = sext i32 %239 to i64
  %241 = call i64 @llvm.expect.i64(i64 %240, i64 0)
  %242 = icmp ne i64 %241, 0
  br i1 %242, label %243, label %245

243:                                              ; preds = %234
  %244 = call i32 @H5E_dump_api_stack()
  br label %245

245:                                              ; preds = %243, %234
  %246 = load i64, ptr %5, align 8, !tbaa !11
  call void @llvm.lifetime.end.p0(i64 1, ptr %8) #7
  call void @llvm.lifetime.end.p0(i64 1, ptr %7) #7
  call void @llvm.lifetime.end.p0(i64 480, ptr %6) #7
  call void @llvm.lifetime.end.p0(i64 8, ptr %5) #7
  call void @llvm.lifetime.end.p0(i64 8, ptr %4) #7
  call void @llvm.lifetime.end.p0(i64 8, ptr %3) #7
  ret i64 %246
}