; Function Attrs: nounwind uwtable
define range(i64 -1, -9223372036854775808) i64 @H5Scopy(i64 noundef %0) local_unnamed_addr #0 {
  %2 = alloca %struct.H5CX_node_t, align 8
  call void @llvm.lifetime.start.p0(i64 480, ptr nonnull %2) #10
  call void @llvm.memset.p0.i64(ptr noundef nonnull align 8 dereferenceable(480) %2, i8 0, i64 480, i1 false)
  %3 = load i8, ptr @H5_libinit_g, align 1, !tbaa !3, !range !7, !noundef !8
  %4 = trunc nuw i8 %3 to i1
  %5 = load i8, ptr @H5_libterm_g, align 1, !range !7
  %6 = trunc nuw i8 %5 to i1
  %7 = select i1 %4, i1 true, i1 %6
  br i1 %7, label %15, label %8, !prof !9

8:                                                ; preds = %1
  %9 = tail call i32 @H5_init_library() #10
  %10 = icmp slt i32 %9, 0
  br i1 %10, label %11, label %._crit_edge, !prof !31

._crit_edge:                                      ; preds = %8
  %.pre = load i8, ptr @H5_libterm_g, align 1, !range !7
  br label %15

11:                                               ; preds = %8
  %12 = load i64, ptr @H5E_FUNC_g, align 8, !tbaa !10
  %13 = load i64, ptr @H5E_CANTINIT_g, align 8, !tbaa !10
  %14 = tail call i32 (ptr, ptr, i32, i64, i64, ptr, ...) @H5E_printf_stack(ptr noundef nonnull @.str.3, ptr noundef nonnull @__func__.H5Scopy, i32 noundef 510, i64 noundef %12, i64 noundef %13, ptr noundef nonnull @.str.11) #10
  br label %.thread45

15:                                               ; preds = %._crit_edge, %1
  %16 = phi i8 [ %.pre, %._crit_edge ], [ %5, %1 ]
  %17 = load i8, ptr @H5S_init_g, align 1, !tbaa !3, !range !7, !noundef !8
  %18 = trunc nuw i8 %17 to i1
  %19 = trunc nuw i8 %16 to i1
  %20 = select i1 %18, i1 true, i1 %19
  br i1 %20, label %28, label %21, !prof !9

21:                                               ; preds = %15
  store i8 1, ptr @H5S_init_g, align 1, !tbaa !3
  %22 = tail call i32 @H5S__init_package()
  %23 = icmp slt i32 %22, 0
  br i1 %23, label %24, label %28, !prof !32

24:                                               ; preds = %21
  store i8 0, ptr @H5S_init_g, align 1, !tbaa !3
  %25 = load i64, ptr @H5E_FUNC_g, align 8, !tbaa !10
  %26 = load i64, ptr @H5E_CANTINIT_g, align 8, !tbaa !10
  %27 = tail call i32 (ptr, ptr, i32, i64, i64, ptr, ...) @H5E_printf_stack(ptr noundef nonnull @.str.3, ptr noundef nonnull @__func__.H5Scopy, i32 noundef 510, i64 noundef %25, i64 noundef %26, ptr noundef nonnull @.str.4) #10
  br label %.thread45

28:                                               ; preds = %15, %21
  %29 = call i32 @H5CX_push(ptr noundef nonnull %2) #10
  %30 = icmp slt i32 %29, 0
  br i1 %30, label %31, label %35, !prof !31

31:                                               ; preds = %28
  %32 = load i64, ptr @H5E_FUNC_g, align 8, !tbaa !10
  %33 = load i64, ptr @H5E_CANTSET_g, align 8, !tbaa !10
  %34 = call i32 (ptr, ptr, i32, i64, i64, ptr, ...) @H5E_printf_stack(ptr noundef nonnull @.str.3, ptr noundef nonnull @__func__.H5Scopy, i32 noundef 510, i64 noundef %32, i64 noundef %33, ptr noundef nonnull @.str.12) #10
  br label %.thread45

35:                                               ; preds = %28
  %36 = call i32 @H5E_clear_stack() #10
  %37 = call ptr @H5I_object_verify(i64 noundef %0, i32 noundef 4) #10
  %38 = icmp eq ptr %37, null
  br i1 %38, label %39, label %43

39:                                               ; preds = %35
  %40 = load i64, ptr @H5E_ARGS_g, align 8, !tbaa !10
  %41 = load i64, ptr @H5E_BADTYPE_g, align 8, !tbaa !10
  %42 = call i32 (ptr, ptr, i32, i64, i64, ptr, ...) @H5E_printf_stack(ptr noundef nonnull @.str.3, ptr noundef nonnull @__func__.H5Scopy, i32 noundef 514, i64 noundef %40, i64 noundef %41, ptr noundef nonnull @.str.18) #10
  br label %.thread54

43:                                               ; preds = %35
  %44 = call ptr @H5S_copy(ptr noundef nonnull %37, i1 noundef zeroext false, i1 noundef zeroext true)
  %45 = icmp eq ptr %44, null
  br i1 %45, label %46, label %50

46:                                               ; preds = %43
  %47 = load i64, ptr @H5E_DATASPACE_g, align 8, !tbaa !10
  %48 = load i64, ptr @H5E_CANTINIT_g, align 8, !tbaa !10
  %49 = call i32 (ptr, ptr, i32, i64, i64, ptr, ...) @H5E_printf_stack(ptr noundef nonnull @.str.3, ptr noundef nonnull @__func__.H5Scopy, i32 noundef 518, i64 noundef %47, i64 noundef %48, ptr noundef nonnull @.str.20) #10
  br label %.thread54

50:                                               ; preds = %43
  %51 = call i64 @H5I_register(i32 noundef 4, ptr noundef nonnull %44, i1 noundef zeroext true) #10
  %52 = icmp slt i64 %51, 0
  br i1 %52, label %53, label %65

53:                                               ; preds = %50
  %54 = load i64, ptr @H5E_ID_g, align 8, !tbaa !10
  %55 = load i64, ptr @H5E_CANTREGISTER_g, align 8, !tbaa !10
  %56 = call i32 (ptr, ptr, i32, i64, i64, ptr, ...) @H5E_printf_stack(ptr noundef nonnull @.str.3, ptr noundef nonnull @__func__.H5Scopy, i32 noundef 522, i64 noundef %54, i64 noundef %55, ptr noundef nonnull @.str.15) #10
  %57 = call i32 @H5S_close(ptr noundef nonnull %44)
  %58 = icmp slt i32 %57, 0
  br i1 %58, label %59, label %.thread50

59:                                               ; preds = %53
  %60 = load i64, ptr @H5E_DATASPACE_g, align 8, !tbaa !10
  %61 = load i64, ptr @H5E_CANTRELEASE_g, align 8, !tbaa !10
  %62 = call i32 (ptr, ptr, i32, i64, i64, ptr, ...) @H5E_printf_stack(ptr noundef nonnull @.str.3, ptr noundef nonnull @__func__.H5Scopy, i32 noundef 527, i64 noundef %60, i64 noundef %61, ptr noundef nonnull @.str.10) #10
  br label %.thread50

.thread50:                                        ; preds = %53, %59
  %63 = call i32 @H5CX_pop(i1 noundef zeroext true) #10
  br label %.thread45

.thread54:                                        ; preds = %39, %46
  %64 = call i32 @H5CX_pop(i1 noundef zeroext true) #10
  br label %.thread45

65:                                               ; preds = %50
  %66 = call i32 @H5CX_pop(i1 noundef zeroext true) #10
  br label %68

.thread45:                                        ; preds = %11, %24, %31, %.thread54, %.thread50
  %67 = call i32 @H5E_dump_api_stack() #10
  br label %68

68:                                               ; preds = %65, %.thread45
  %.1183548 = phi i64 [ -1, %.thread45 ], [ %51, %65 ]
  call void @llvm.lifetime.end.p0(i64 480, ptr nonnull %2) #10
  ret i64 %.1183548
}